; Function Attrs: mustprogress nounwind uwtable
define void @_ZN9gmx_edsamD2Ev(ptr noundef nonnull readonly align 8 captures(none) dereferenceable(41) %0) unnamed_addr #0 align 2 personality ptr @__gxx_personality_v0 {
  %2 = getelementptr inbounds nuw i8, ptr %0, i64 8
  %3 = load ptr, ptr %2, align 8, !tbaa !4
  %.not = icmp eq ptr %3, null
  br i1 %.not, label %6, label %4

4:                                                ; preds = %1
  %5 = invoke noundef i32 @_Z14gmx_fio_fcloseP8_IO_FILE(ptr noundef nonnull %3)
          to label %6 unwind label %15

6:                                                ; preds = %4, %1
  %7 = getelementptr inbounds nuw i8, ptr %0, i64 16
  %8 = load ptr, ptr %7, align 8, !tbaa !16
  %.not.i.i.i = icmp eq ptr %8, null
  br i1 %.not.i.i.i, label %_ZNSt6vectorI5edparSaIS0_EED2Ev.exit, label %9

9:                                                ; preds = %6
  %10 = getelementptr inbounds nuw i8, ptr %0, i64 32
  %11 = load ptr, ptr %10, align 8, !tbaa !17
  %12 = ptrtoint ptr %11 to i64
  %13 = ptrtoint ptr %8 to i64
  %14 = sub i64 %12, %13
  tail call void @_ZdlPvm(ptr noundef nonnull %8, i64 noundef %14) #23
  br label %_ZNSt6vectorI5edparSaIS0_EED2Ev.exit

_ZNSt6vectorI5edparSaIS0_EED2Ev.exit:             ; preds = %6, %9
  ret void

15:                                               ; preds = %4
  %16 = landingpad { ptr, i32 }
          catch ptr null
  %17 = extractvalue { ptr, i32 } %16, 0
  tail call void @__clang_call_terminate(ptr %17) #24
  unreachable
}